; Function Attrs: mustprogress uwtable
define dso_local void @_ZN9CGContext10add_effectERK6Effectb(ptr noundef nonnull align 8 dereferenceable(216) %0, ptr noundef nonnull align 8 dereferenceable(74) %1, i1 noundef zeroext %2) local_unnamed_addr #4 align 2 {
  %4 = getelementptr inbounds nuw i8, ptr %0, i64 128
  %5 = load ptr, ptr %4, align 8
  %.not = icmp eq ptr %5, null
  br i1 %.not, label %7, label %6

6:                                                ; preds = %3
  tail call void @_ZN6Effect10add_effectERKS_b(ptr noundef nonnull align 8 dereferenceable(74) %5, ptr noundef nonnull align 8 dereferenceable(74) %1, i1 noundef zeroext %2)
  br label %7

7:                                                ; preds = %6, %3
  %8 = getelementptr inbounds nuw i8, ptr %0, i64 136
  tail call void @_ZN6Effect10add_effectERKS_b(ptr noundef nonnull align 8 dereferenceable(74) %8, ptr noundef nonnull align 8 dereferenceable(74) %1, i1 noundef zeroext false)
  ret void
}